target datalayout = "e-m:e-p270:32:32-p271:32:32-p272:64:64-i64:64-i128:128-f80:128-n8:16:32:64-S128"
target triple = "x86_64-unknown-linux-gnu"

%struct.UText = type { i32, i32, i32, i32, i64, i32, i32, i64, i32, i32, ptr, ptr, ptr, ptr, ptr, ptr, ptr, ptr, i64, i32, i32, i64, i32, i32 }
%"class.icu_75::UObject" = type { ptr }
%"class.icu_75::CharacterIterator" = type { %"class.icu_75::ForwardCharacterIterator", i32, i32, i32, i32 }
%"class.icu_75::ForwardCharacterIterator" = type { %"class.icu_75::UObject" }

; Function Attrs: mustprogress nounwind uwtable
define linkonce_odr noundef i32 @_ZNK6icu_7517CharacterIterator8endIndexEv(ptr noundef nonnull align 8 dereferenceable(24) %this) #1 comdat align 2 {
entry:
  %this.addr = alloca ptr, align 8
  store ptr %this, ptr %this.addr, align 8
  %this1 = load ptr, ptr %this.addr, align 8
  %end = getelementptr inbounds %"class.icu_75::CharacterIterator", ptr %this1, i32 0, i32 4
  %0 = load i32, ptr %end, align 4
  ret i32 %0
}

; Function Attrs: mustprogress nounwind uwtable
define internal noundef signext i8 @_ZL9U_SUCCESS10UErrorCode(i32 noundef %code) #1 {
entry:
  %code.addr = alloca i32, align 4
  store i32 %code, ptr %code.addr, align 4
  %0 = load i32, ptr %code.addr, align 4
  %cmp = icmp sle i32 %0, 0
  %conv = zext i1 %cmp to i8
  ret i8 %conv
}

; Function Attrs: mustprogress nounwind uwtable
define linkonce_odr noundef i32 @_ZNK6icu_7517CharacterIterator10startIndexEv(ptr noundef nonnull align 8 dereferenceable(24) %this) #1 comdat align 2 {
entry:
  %this.addr = alloca ptr, align 8
  store ptr %this, ptr %this.addr, align 8
  %this1 = load ptr, ptr %this.addr, align 8
  %begin = getelementptr inbounds %"class.icu_75::CharacterIterator", ptr %this1, i32 0, i32 3
  %0 = load i32, ptr %begin, align 8
  ret i32 %0
}

; Function Attrs: mustprogress nounwind uwtable
define internal noundef signext i8 @_ZL9U_FAILURE10UErrorCode(i32 noundef %code) #1 {
entry:
  %code.addr = alloca i32, align 4
  store i32 %code, ptr %code.addr, align 4
  %0 = load i32, ptr %code.addr, align 4
  %cmp = icmp sgt i32 %0, 0
  %conv = zext i1 %cmp to i8
  ret i8 %conv
}

; Function Attrs: mustprogress uwtable
define ptr @utext_openCharacterIterator_75(ptr noundef %ut, ptr noundef %ci, ptr noundef %status) #0 {
entry:
  %retval = alloca ptr, align 8
  %ut.addr = alloca ptr, align 8
  %ci.addr = alloca ptr, align 8
  %status.addr = alloca ptr, align 8
  %extraSpace = alloca i32, align 4
  store ptr %ut, ptr %ut.addr, align 8
  store ptr %ci, ptr %ci.addr, align 8
  store ptr %status, ptr %status.addr, align 8
  %0 = load ptr, ptr %status.addr, align 8
  %1 = load i32, ptr %0, align 4
  %call = call noundef signext i8 @_ZL9U_FAILURE10UErrorCode(i32 noundef %1)
  %tobool = icmp ne i8 %call, 0
  br i1 %tobool, label %if.then, label %if.end

if.then:                                          ; preds = %entry
  store ptr null, ptr %retval, align 8
  br label %return

if.end:                                           ; preds = %entry
  %2 = load ptr, ptr %ci.addr, align 8
  %call1 = call noundef i32 @_ZNK6icu_7517CharacterIterator10startIndexEv(ptr noundef nonnull align 8 dereferenceable(24) %2)
  %cmp = icmp sgt i32 %call1, 0
  br i1 %cmp, label %if.then2, label %if.end3

if.then2:                                         ; preds = %if.end
  %3 = load ptr, ptr %status.addr, align 8
  store i32 16, ptr %3, align 4
  store ptr null, ptr %retval, align 8
  br label %return

if.end3:                                          ; preds = %if.end
  store i32 64, ptr %extraSpace, align 4
  %4 = load ptr, ptr %ut.addr, align 8
  %5 = load i32, ptr %extraSpace, align 4
  %6 = load ptr, ptr %status.addr, align 8
  %call4 = call ptr @utext_setup_75(ptr noundef %4, i32 noundef %5, ptr noundef %6)
  store ptr %call4, ptr %ut.addr, align 8
  %7 = load ptr, ptr %status.addr, align 8
  %8 = load i32, ptr %7, align 4
  %call5 = call noundef signext i8 @_ZL9U_SUCCESS10UErrorCode(i32 noundef %8)
  %tobool6 = icmp ne i8 %call5, 0
  br i1 %tobool6, label %if.then7, label %if.end12

if.then7:                                         ; preds = %if.end3
  %9 = load ptr, ptr %ut.addr, align 8
  %pFuncs = getelementptr inbounds %struct.UText, ptr %9, i32 0, i32 11
  store ptr @_ZL13charIterFuncs, ptr %pFuncs, align 8
  %10 = load ptr, ptr %ci.addr, align 8
  %11 = load ptr, ptr %ut.addr, align 8
  %context = getelementptr inbounds %struct.UText, ptr %11, i32 0, i32 13
  store ptr %10, ptr %context, align 8
  %12 = load ptr, ptr %ut.addr, align 8
  %providerProperties = getelementptr inbounds %struct.UText, ptr %12, i32 0, i32 2
  store i32 0, ptr %providerProperties, align 8
  %13 = load ptr, ptr %ci.addr, align 8
  %call8 = call noundef i32 @_ZNK6icu_7517CharacterIterator8endIndexEv(ptr noundef nonnull align 8 dereferenceable(24) %13)
  %conv = sext i32 %call8 to i64
  %14 = load ptr, ptr %ut.addr, align 8
  %a = getelementptr inbounds %struct.UText, ptr %14, i32 0, i32 18
  store i64 %conv, ptr %a, align 8
  %15 = load ptr, ptr %ut.addr, align 8
  %pExtra = getelementptr inbounds %struct.UText, ptr %15, i32 0, i32 12
  %16 = load ptr, ptr %pExtra, align 8
  %17 = load ptr, ptr %ut.addr, align 8
  %p = getelementptr inbounds %struct.UText, ptr %17, i32 0, i32 14
  store ptr %16, ptr %p, align 8
  %18 = load ptr, ptr %ut.addr, align 8
  %b = getelementptr inbounds %struct.UText, ptr %18, i32 0, i32 19
  store i32 -1, ptr %b, align 8
  %19 = load ptr, ptr %ut.addr, align 8
  %pExtra9 = getelementptr inbounds %struct.UText, ptr %19, i32 0, i32 12
  %20 = load ptr, ptr %pExtra9, align 8
  %add.ptr = getelementptr inbounds i16, ptr %20, i64 16
  %21 = load ptr, ptr %ut.addr, align 8
  %q = getelementptr inbounds %struct.UText, ptr %21, i32 0, i32 15
  store ptr %add.ptr, ptr %q, align 8
  %22 = load ptr, ptr %ut.addr, align 8
  %c = getelementptr inbounds %struct.UText, ptr %22, i32 0, i32 20
  store i32 -1, ptr %c, align 4
  %23 = load ptr, ptr %ut.addr, align 8
  %p10 = getelementptr inbounds %struct.UText, ptr %23, i32 0, i32 14
  %24 = load ptr, ptr %p10, align 8
  %25 = load ptr, ptr %ut.addr, align 8
  %chunkContents = getelementptr inbounds %struct.UText, ptr %25, i32 0, i32 10
  store ptr %24, ptr %chunkContents, align 8
  %26 = load ptr, ptr %ut.addr, align 8
  %chunkNativeStart = getelementptr inbounds %struct.UText, ptr %26, i32 0, i32 7
  store i64 -1, ptr %chunkNativeStart, align 8
  %27 = load ptr, ptr %ut.addr, align 8
  %chunkOffset = getelementptr inbounds %struct.UText, ptr %27, i32 0, i32 8
  store i32 1, ptr %chunkOffset, align 8
  %28 = load ptr, ptr %ut.addr, align 8
  %chunkNativeLimit = getelementptr inbounds %struct.UText, ptr %28, i32 0, i32 4
  store i64 0, ptr %chunkNativeLimit, align 8
  %29 = load ptr, ptr %ut.addr, align 8
  %chunkLength = getelementptr inbounds %struct.UText, ptr %29, i32 0, i32 9
  store i32 0, ptr %chunkLength, align 4
  %30 = load ptr, ptr %ut.addr, align 8
  %chunkOffset11 = getelementptr inbounds %struct.UText, ptr %30, i32 0, i32 8
  %31 = load i32, ptr %chunkOffset11, align 8
  %32 = load ptr, ptr %ut.addr, align 8
  %nativeIndexingLimit = getelementptr inbounds %struct.UText, ptr %32, i32 0, i32 6
  store i32 %31, ptr %nativeIndexingLimit, align 4
  br label %if.end12

if.end12:                                         ; preds = %if.then7, %if.end3
  %33 = load ptr, ptr %ut.addr, align 8
  store ptr %33, ptr %retval, align 8
  br label %return

return:                                           ; preds = %if.end12, %if.then2, %if.then
  %34 = load ptr, ptr %retval, align 8
  ret ptr %34
}