; Function Attrs: mustprogress uwtable
define ptr @utext_openCharacterIterator_75(ptr noundef %ut, ptr noundef %ci, ptr nocapture noundef %status) local_unnamed_addr #0 {
entry:
  %0 = load i32, ptr %status, align 4
  %cmp.i = icmp slt i32 %0, 1
  br i1 %cmp.i, label %if.end, label %return

if.end:                                           ; preds = %entry
  %begin.i = getelementptr inbounds i8, ptr %ci, i64 16
  %1 = load i32, ptr %begin.i, align 8
  %cmp = icmp sgt i32 %1, 0
  br i1 %cmp, label %if.then2, label %if.end3

if.then2:                                         ; preds = %if.end
  store i32 16, ptr %status, align 4
  br label %return

if.end3:                                          ; preds = %if.end
  %call4 = tail call ptr @utext_setup_75(ptr noundef %ut, i32 noundef 64, ptr noundef nonnull %status)
  %2 = load i32, ptr %status, align 4
  %cmp.i25 = icmp sgt i32 %2, 0
  br i1 %cmp.i25, label %return, label %if.then7

if.then7:                                         ; preds = %if.end3
  %pFuncs = getelementptr inbounds i8, ptr %call4, i64 56
  store ptr @_ZL13charIterFuncs, ptr %pFuncs, align 8
  %context = getelementptr inbounds i8, ptr %call4, i64 72
  store ptr %ci, ptr %context, align 8
  %providerProperties = getelementptr inbounds i8, ptr %call4, i64 8
  store i32 0, ptr %providerProperties, align 8
  %end.i = getelementptr inbounds i8, ptr %ci, i64 20
  %3 = load i32, ptr %end.i, align 4
  %conv = sext i32 %3 to i64
  %a = getelementptr inbounds i8, ptr %call4, i64 112
  store i64 %conv, ptr %a, align 8
  %pExtra = getelementptr inbounds i8, ptr %call4, i64 64
  %4 = load ptr, ptr %pExtra, align 8
  %p = getelementptr inbounds i8, ptr %call4, i64 80
  store ptr %4, ptr %p, align 8
  %b = getelementptr inbounds i8, ptr %call4, i64 120
  store i32 -1, ptr %b, align 8
  %add.ptr = getelementptr inbounds i8, ptr %4, i64 32
  %q = getelementptr inbounds i8, ptr %call4, i64 88
  store ptr %add.ptr, ptr %q, align 8
  %c = getelementptr inbounds i8, ptr %call4, i64 124
  store i32 -1, ptr %c, align 4
  %chunkContents = getelementptr inbounds i8, ptr %call4, i64 48
  store ptr %4, ptr %chunkContents, align 8
  %chunkNativeStart = getelementptr inbounds i8, ptr %call4, i64 32
  store i64 -1, ptr %chunkNativeStart, align 8
  %chunkOffset = getelementptr inbounds i8, ptr %call4, i64 40
  store i32 1, ptr %chunkOffset, align 8
  %chunkNativeLimit = getelementptr inbounds i8, ptr %call4, i64 16
  store i64 0, ptr %chunkNativeLimit, align 8
  %chunkLength = getelementptr inbounds i8, ptr %call4, i64 44
  store i32 0, ptr %chunkLength, align 4
  %nativeIndexingLimit = getelementptr inbounds i8, ptr %call4, i64 28
  store i32 1, ptr %nativeIndexingLimit, align 4
  br label %return

return:                                           ; preds = %if.end3, %if.then7, %entry, %if.then2
  %retval.0 = phi ptr [ null, %if.then2 ], [ null, %entry ], [ %call4, %if.then7 ], [ %call4, %if.end3 ]
  ret ptr %retval.0
}